; Function Attrs: noreturn nounwind uwtable
define hidden void @lj_trace_err(ptr noundef captures(none) initializes((3088, 3096)) %0, i32 noundef %1) local_unnamed_addr #0 {
  %3 = getelementptr inbounds nuw i8, ptr %0, i64 3088
  store i64 -1, ptr %3, align 8, !tbaa !4
  %4 = getelementptr inbounds nuw i8, ptr %0, i64 128
  %5 = load ptr, ptr %4, align 8, !tbaa !7
  %6 = getelementptr inbounds nuw i8, ptr %5, i64 40
  %7 = load ptr, ptr %6, align 8, !tbaa !28
  %8 = getelementptr inbounds nuw i8, ptr %7, i64 8
  store ptr %8, ptr %6, align 8, !tbaa !28
  %9 = sitofp i32 %1 to double
  store double %9, ptr %7, align 8, !tbaa !4
  %10 = load ptr, ptr %4, align 8, !tbaa !7
  tail call void @lj_err_throw(ptr noundef %10, i32 noundef 2) #13
  unreachable
}